; Function Attrs: mustprogress nofree norecurse nosync nounwind willreturn memory(read, inaccessiblemem: none) uwtable
define dso_local noundef ptr @_ZNK5clang15LocationContext13getStackFrameEv(ptr noundef nonnull readonly align 8 dereferenceable(48) %0) local_unnamed_addr #9 align 2 {
  br label %2

2:                                                ; preds = %1, %5
  %.0712 = phi ptr [ %0, %1 ], [ %7, %5 ]
  %3 = getelementptr inbounds nuw i8, ptr %.0712, i64 16
  %4 = load i32, ptr %3, align 8
  %.not11 = icmp eq i32 %4, 0
  br i1 %.not11, label %8, label %5

5:                                                ; preds = %2
  %6 = getelementptr inbounds nuw i8, ptr %.0712, i64 32
  %7 = load ptr, ptr %6, align 8
  %.not = icmp eq ptr %7, null
  br i1 %.not, label %8, label %2, !llvm.loop !15

8:                                                ; preds = %5, %2
  %.0 = phi ptr [ %.0712, %2 ], [ null, %5 ]
  ret ptr %.0
}